target datalayout = "e-m:e-p270:32:32-p271:32:32-p272:64:64-i64:64-i128:128-f80:128-n8:16:32:64-S128"
target triple = "x86_64-pc-linux-gnu"

%struct.__loadu_ps = type { <4 x float> }
%struct.__mm_storel_epi64_struct = type { i64 }
%struct.__storeu_si128 = type { <2 x i64> }

@stbir__s32_32768 = global <2 x i64> splat (i64 140737488388096), align 16
@stbir__s16_32768 = global <2 x i64> splat (i64 -9223231297218904064), align 16

; Function Attrs: alwaysinline nounwind uwtable
define available_externally void @_mm_storel_epi64(ptr noundef %0, <2 x i64> noundef %1) #2 {
  %3 = alloca ptr, align 8
  %4 = alloca <2 x i64>, align 16
  store ptr %0, ptr %3, align 8, !tbaa !3
  store <2 x i64> %1, ptr %4, align 16, !tbaa !12
  %5 = load <2 x i64>, ptr %4, align 16, !tbaa !12
  %6 = extractelement <2 x i64> %5, i32 0
  %7 = load ptr, ptr %3, align 8, !tbaa !3
  %8 = getelementptr inbounds nuw %struct.__mm_storel_epi64_struct, ptr %7, i32 0, i32 0
  store i64 %6, ptr %8, align 1, !tbaa !12
  ret void
}

; Function Attrs: alwaysinline nounwind uwtable
define available_externally void @_mm_storeu_si128(ptr noundef %0, <2 x i64> noundef %1) #2 {
  %3 = alloca ptr, align 8
  %4 = alloca <2 x i64>, align 16
  store ptr %0, ptr %3, align 8, !tbaa !3
  store <2 x i64> %1, ptr %4, align 16, !tbaa !12
  %5 = load <2 x i64>, ptr %4, align 16, !tbaa !12
  %6 = load ptr, ptr %3, align 8, !tbaa !3
  %7 = getelementptr inbounds nuw %struct.__storeu_si128, ptr %6, i32 0, i32 0
  store <2 x i64> %5, ptr %7, align 1, !tbaa !12
  ret void
}

; Function Attrs: alwaysinline nounwind uwtable
define available_externally <2 x i64> @_mm_sub_epi16(<2 x i64> noundef %0, <2 x i64> noundef %1) #2 {
  %3 = alloca <2 x i64>, align 16
  %4 = alloca <2 x i64>, align 16
  store <2 x i64> %0, ptr %3, align 16, !tbaa !12
  store <2 x i64> %1, ptr %4, align 16, !tbaa !12
  %5 = load <2 x i64>, ptr %3, align 16, !tbaa !12
  %6 = bitcast <2 x i64> %5 to <8 x i16>
  %7 = load <2 x i64>, ptr %4, align 16, !tbaa !12
  %8 = bitcast <2 x i64> %7 to <8 x i16>
  %9 = sub <8 x i16> %6, %8
  %10 = bitcast <8 x i16> %9 to <2 x i64>
  ret <2 x i64> %10
}

; Function Attrs: alwaysinline nounwind uwtable
define available_externally <2 x i64> @_mm_packs_epi32(<2 x i64> noundef %0, <2 x i64> noundef %1) #2 {
  %3 = alloca <2 x i64>, align 16
  %4 = alloca <2 x i64>, align 16
  store <2 x i64> %0, ptr %3, align 16, !tbaa !12
  store <2 x i64> %1, ptr %4, align 16, !tbaa !12
  %5 = load <2 x i64>, ptr %3, align 16, !tbaa !12
  %6 = bitcast <2 x i64> %5 to <4 x i32>
  %7 = load <2 x i64>, ptr %4, align 16, !tbaa !12
  %8 = bitcast <2 x i64> %7 to <4 x i32>
  %9 = call <8 x i16> @llvm.x86.sse2.packssdw.128(<4 x i32> %6, <4 x i32> %8)
  %10 = bitcast <8 x i16> %9 to <2 x i64>
  ret <2 x i64> %10
}

; Function Attrs: alwaysinline nounwind uwtable
define available_externally <2 x i64> @_mm_sub_epi32(<2 x i64> noundef %0, <2 x i64> noundef %1) #2 {
  %3 = alloca <2 x i64>, align 16
  %4 = alloca <2 x i64>, align 16
  store <2 x i64> %0, ptr %3, align 16, !tbaa !12
  store <2 x i64> %1, ptr %4, align 16, !tbaa !12
  %5 = load <2 x i64>, ptr %3, align 16, !tbaa !12
  %6 = bitcast <2 x i64> %5 to <4 x i32>
  %7 = load <2 x i64>, ptr %4, align 16, !tbaa !12
  %8 = bitcast <2 x i64> %7 to <4 x i32>
  %9 = sub <4 x i32> %6, %8
  %10 = bitcast <4 x i32> %9 to <2 x i64>
  ret <2 x i64> %10
}

; Function Attrs: alwaysinline nounwind uwtable
define available_externally <2 x i64> @_mm_cvttps_epi32(<4 x float> noundef %0) #2 {
  %2 = alloca <4 x float>, align 16
  store <4 x float> %0, ptr %2, align 16, !tbaa !12
  %3 = load <4 x float>, ptr %2, align 16, !tbaa !12
  %4 = call <4 x i32> @llvm.x86.sse2.cvttps2dq(<4 x float> %3)
  %5 = bitcast <4 x i32> %4 to <2 x i64>
  ret <2 x i64> %5
}

; Function Attrs: alwaysinline nounwind uwtable
define available_externally <4 x float> @_mm_max_ps(<4 x float> noundef %0, <4 x float> noundef %1) #2 {
  %3 = alloca <4 x float>, align 16
  %4 = alloca <4 x float>, align 16
  store <4 x float> %0, ptr %3, align 16, !tbaa !12
  store <4 x float> %1, ptr %4, align 16, !tbaa !12
  %5 = load <4 x float>, ptr %3, align 16, !tbaa !12
  %6 = load <4 x float>, ptr %4, align 16, !tbaa !12
  %7 = call <4 x float> @llvm.x86.sse.max.ps(<4 x float> %5, <4 x float> %6)
  ret <4 x float> %7
}

; Function Attrs: alwaysinline nounwind uwtable
define available_externally <4 x float> @_mm_setzero_ps() #2 {
  %1 = alloca <4 x float>, align 16
  store <4 x float> zeroinitializer, ptr %1, align 16, !tbaa !12
  %2 = load <4 x float>, ptr %1, align 16, !tbaa !12
  ret <4 x float> %2
}

; Function Attrs: alwaysinline nounwind uwtable
define available_externally <4 x float> @_mm_min_ps(<4 x float> noundef %0, <4 x float> noundef %1) #2 {
  %3 = alloca <4 x float>, align 16
  %4 = alloca <4 x float>, align 16
  store <4 x float> %0, ptr %3, align 16, !tbaa !12
  store <4 x float> %1, ptr %4, align 16, !tbaa !12
  %5 = load <4 x float>, ptr %3, align 16, !tbaa !12
  %6 = load <4 x float>, ptr %4, align 16, !tbaa !12
  %7 = call <4 x float> @llvm.x86.sse.min.ps(<4 x float> %5, <4 x float> %6)
  ret <4 x float> %7
}

; Function Attrs: alwaysinline nounwind uwtable
define available_externally <4 x float> @_mm_castsi128_ps(<2 x i64> noundef %0) #2 {
  %2 = alloca <2 x i64>, align 16
  store <2 x i64> %0, ptr %2, align 16, !tbaa !12
  %3 = load <2 x i64>, ptr %2, align 16, !tbaa !12
  %4 = bitcast <2 x i64> %3 to <4 x float>
  ret <4 x float> %4
}

; Function Attrs: alwaysinline nounwind uwtable
define available_externally <2 x i64> @_mm_castps_si128(<4 x float> noundef %0) #2 {
  %2 = alloca <4 x float>, align 16
  store <4 x float> %0, ptr %2, align 16, !tbaa !12
  %3 = load <4 x float>, ptr %2, align 16, !tbaa !12
  %4 = bitcast <4 x float> %3 to <2 x i64>
  ret <2 x i64> %4
}

; Function Attrs: alwaysinline nounwind uwtable
define available_externally <4 x float> @_mm_add_ps(<4 x float> noundef %0, <4 x float> noundef %1) #2 {
  %3 = alloca <4 x float>, align 16
  %4 = alloca <4 x float>, align 16
  store <4 x float> %0, ptr %3, align 16, !tbaa !12
  store <4 x float> %1, ptr %4, align 16, !tbaa !12
  %5 = load <4 x float>, ptr %3, align 16, !tbaa !12
  %6 = load <4 x float>, ptr %4, align 16, !tbaa !12
  %7 = fadd <4 x float> %5, %6
  ret <4 x float> %7
}

; Function Attrs: alwaysinline nounwind uwtable
define available_externally <4 x float> @_mm_loadu_ps(ptr noundef %0) #2 {
  %2 = alloca ptr, align 8
  store ptr %0, ptr %2, align 8, !tbaa !21
  %3 = load ptr, ptr %2, align 8, !tbaa !21
  %4 = getelementptr inbounds nuw %struct.__loadu_ps, ptr %3, i32 0, i32 0
  %5 = load <4 x float>, ptr %4, align 1, !tbaa !12
  ret <4 x float> %5
}

; Function Attrs: nounwind uwtable
define void @stbir__encode_uint16_linear_ABGR(ptr noundef %0, i32 noundef %1, ptr noundef %2) #0 {
  %4 = alloca ptr, align 8
  %5 = alloca i32, align 4
  %6 = alloca ptr, align 8
  %7 = alloca ptr, align 8
  %8 = alloca ptr, align 8
  %9 = alloca ptr, align 8
  %10 = alloca <4 x float>, align 16
  %11 = alloca <4 x float>, align 16
  %12 = alloca <2 x i64>, align 16
  %13 = alloca <2 x i64>, align 16
  %14 = alloca <2 x i64>, align 16
  %15 = alloca i32, align 4
  %16 = alloca <4 x float>, align 16
  %17 = alloca <2 x i64>, align 16
  %18 = alloca <2 x i64>, align 16
  %19 = alloca <2 x i64>, align 16
  store ptr %0, ptr %4, align 8, !tbaa !3
  store i32 %1, ptr %5, align 4, !tbaa !26
  store ptr %2, ptr %6, align 8, !tbaa !21
  call void @llvm.lifetime.start.p0(i64 8, ptr %7) #12
  %20 = load ptr, ptr %4, align 8, !tbaa !3
  store ptr %20, ptr %7, align 8, !tbaa !191
  call void @llvm.lifetime.start.p0(i64 8, ptr %8) #12
  %21 = load ptr, ptr %7, align 8, !tbaa !191
  %22 = load i32, ptr %5, align 4, !tbaa !26
  %23 = sext i32 %22 to i64
  %24 = getelementptr inbounds i16, ptr %21, i64 %23
  store ptr %24, ptr %8, align 8, !tbaa !191
  %25 = load i32, ptr %5, align 4, !tbaa !26
  %26 = icmp sge i32 %25, 8
  br i1 %26, label %27, label %101

27:                                               ; preds = %3
  call void @llvm.lifetime.start.p0(i64 8, ptr %9) #12
  %28 = load ptr, ptr %6, align 8, !tbaa !21
  %29 = load i32, ptr %5, align 4, !tbaa !26
  %30 = sext i32 %29 to i64
  %31 = getelementptr inbounds float, ptr %28, i64 %30
  %32 = getelementptr inbounds float, ptr %31, i64 -8
  store ptr %32, ptr %9, align 8, !tbaa !21
  %33 = load ptr, ptr %8, align 8, !tbaa !191
  %34 = getelementptr inbounds i16, ptr %33, i64 -8
  store ptr %34, ptr %8, align 8, !tbaa !191
  br label %35

35:                                               ; preds = %99, %97, %27
  call void @llvm.lifetime.start.p0(i64 16, ptr %10) #12
  call void @llvm.lifetime.start.p0(i64 16, ptr %11) #12
  call void @llvm.lifetime.start.p0(i64 16, ptr %12) #12
  %36 = load ptr, ptr %6, align 8, !tbaa !21
  call void asm sideeffect "", "r,~{dirflag},~{fpsr},~{flags}"(ptr %36) #12, !srcloc !388
  %37 = load ptr, ptr %6, align 8, !tbaa !21
  %38 = call <4 x float> @_mm_loadu_ps(ptr noundef %37)
  %39 = call <4 x float> @_mm_add_ps(<4 x float> noundef splat (float 5.000000e-01), <4 x float> noundef %38)
  store <4 x float> %39, ptr %10, align 16, !tbaa !12
  %40 = load ptr, ptr %6, align 8, !tbaa !21
  %41 = getelementptr inbounds float, ptr %40, i64 4
  %42 = call <4 x float> @_mm_loadu_ps(ptr noundef %41)
  %43 = call <4 x float> @_mm_add_ps(<4 x float> noundef splat (float 5.000000e-01), <4 x float> noundef %42)
  store <4 x float> %43, ptr %11, align 16, !tbaa !12
  %44 = load <4 x float>, ptr %10, align 16, !tbaa !12
  %45 = call <2 x i64> @_mm_castps_si128(<4 x float> noundef %44)
  %46 = bitcast <2 x i64> %45 to <4 x i32>
  %47 = shufflevector <4 x i32> %46, <4 x i32> poison, <4 x i32> <i32 3, i32 2, i32 1, i32 0>
  %48 = bitcast <4 x i32> %47 to <2 x i64>
  %49 = call <4 x float> @_mm_castsi128_ps(<2 x i64> noundef %48)
  store <4 x float> %49, ptr %10, align 16, !tbaa !12
  %50 = load <4 x float>, ptr %11, align 16, !tbaa !12
  %51 = call <2 x i64> @_mm_castps_si128(<4 x float> noundef %50)
  %52 = bitcast <2 x i64> %51 to <4 x i32>
  %53 = shufflevector <4 x i32> %52, <4 x i32> poison, <4 x i32> <i32 3, i32 2, i32 1, i32 0>
  %54 = bitcast <4 x i32> %53 to <2 x i64>
  %55 = call <4 x float> @_mm_castsi128_ps(<2 x i64> noundef %54)
  store <4 x float> %55, ptr %11, align 16, !tbaa !12
  call void @llvm.lifetime.start.p0(i64 16, ptr %13) #12
  call void @llvm.lifetime.start.p0(i64 16, ptr %14) #12
  %56 = load <4 x float>, ptr %10, align 16, !tbaa !12
  %57 = call <4 x float> @_mm_min_ps(<4 x float> noundef %56, <4 x float> noundef splat (float 6.553500e+04))
  %58 = call <4 x float> @_mm_setzero_ps()
  %59 = call <4 x float> @_mm_max_ps(<4 x float> noundef %57, <4 x float> noundef %58)
  %60 = call <2 x i64> @_mm_cvttps_epi32(<4 x float> noundef %59)
  store <2 x i64> %60, ptr %13, align 16, !tbaa !12
  %61 = load <4 x float>, ptr %11, align 16, !tbaa !12
  %62 = call <4 x float> @_mm_min_ps(<4 x float> noundef %61, <4 x float> noundef splat (float 6.553500e+04))
  %63 = call <4 x float> @_mm_setzero_ps()
  %64 = call <4 x float> @_mm_max_ps(<4 x float> noundef %62, <4 x float> noundef %63)
  %65 = call <2 x i64> @_mm_cvttps_epi32(<4 x float> noundef %64)
  store <2 x i64> %65, ptr %14, align 16, !tbaa !12
  %66 = load <2 x i64>, ptr %13, align 16, !tbaa !12
  %67 = load <2 x i64>, ptr @stbir__s32_32768, align 16, !tbaa !12
  %68 = call <2 x i64> @_mm_sub_epi32(<2 x i64> noundef %66, <2 x i64> noundef %67)
  store <2 x i64> %68, ptr %13, align 16, !tbaa !12
  %69 = load <2 x i64>, ptr %14, align 16, !tbaa !12
  %70 = load <2 x i64>, ptr @stbir__s32_32768, align 16, !tbaa !12
  %71 = call <2 x i64> @_mm_sub_epi32(<2 x i64> noundef %69, <2 x i64> noundef %70)
  store <2 x i64> %71, ptr %14, align 16, !tbaa !12
  %72 = load <2 x i64>, ptr %13, align 16, !tbaa !12
  %73 = load <2 x i64>, ptr %14, align 16, !tbaa !12
  %74 = call <2 x i64> @_mm_packs_epi32(<2 x i64> noundef %72, <2 x i64> noundef %73)
  store <2 x i64> %74, ptr %12, align 16, !tbaa !12
  %75 = load <2 x i64>, ptr %12, align 16, !tbaa !12
  %76 = load <2 x i64>, ptr @stbir__s16_32768, align 16, !tbaa !12
  %77 = call <2 x i64> @_mm_sub_epi16(<2 x i64> noundef %75, <2 x i64> noundef %76)
  store <2 x i64> %77, ptr %12, align 16, !tbaa !12
  call void @llvm.lifetime.end.p0(i64 16, ptr %14) #12
  call void @llvm.lifetime.end.p0(i64 16, ptr %13) #12
  %78 = load ptr, ptr %7, align 8, !tbaa !191
  %79 = load <2 x i64>, ptr %12, align 16, !tbaa !12
  call void @_mm_storeu_si128(ptr noundef %78, <2 x i64> noundef %79)
  %80 = load ptr, ptr %6, align 8, !tbaa !21
  %81 = getelementptr inbounds float, ptr %80, i64 8
  store ptr %81, ptr %6, align 8, !tbaa !21
  %82 = load ptr, ptr %7, align 8, !tbaa !191
  %83 = getelementptr inbounds i16, ptr %82, i64 8
  store ptr %83, ptr %7, align 8, !tbaa !191
  %84 = load ptr, ptr %7, align 8, !tbaa !191
  %85 = load ptr, ptr %8, align 8, !tbaa !191
  %86 = icmp ule ptr %84, %85
  br i1 %86, label %87, label %88

87:                                               ; preds = %35
  store i32 3, ptr %15, align 4
  br label %97, !llvm.loop !389

88:                                               ; preds = %35
  %89 = load ptr, ptr %7, align 8, !tbaa !191
  %90 = load ptr, ptr %8, align 8, !tbaa !191
  %91 = getelementptr inbounds i16, ptr %90, i64 8
  %92 = icmp eq ptr %89, %91
  br i1 %92, label %93, label %94

93:                                               ; preds = %88
  store i32 2, ptr %15, align 4
  br label %97

94:                                               ; preds = %88
  %95 = load ptr, ptr %8, align 8, !tbaa !191
  store ptr %95, ptr %7, align 8, !tbaa !191
  %96 = load ptr, ptr %9, align 8, !tbaa !21
  store ptr %96, ptr %6, align 8, !tbaa !21
  store i32 0, ptr %15, align 4
  br label %97

97:                                               ; preds = %94, %93, %87
  call void @llvm.lifetime.end.p0(i64 16, ptr %12) #12
  call void @llvm.lifetime.end.p0(i64 16, ptr %11) #12
  call void @llvm.lifetime.end.p0(i64 16, ptr %10) #12
  %98 = load i32, ptr %15, align 4
  switch i32 %98, label %155 [
    i32 0, label %99
    i32 3, label %35
    i32 2, label %100
  ]

99:                                               ; preds = %97
  br label %35, !llvm.loop !389

100:                                              ; preds = %97
  store i32 1, ptr %15, align 4
  call void @llvm.lifetime.end.p0(i64 8, ptr %9) #12
  br label %152

101:                                              ; preds = %3
  %102 = load ptr, ptr %7, align 8, !tbaa !191
  %103 = getelementptr inbounds i16, ptr %102, i64 4
  store ptr %103, ptr %7, align 8, !tbaa !191
  br label %104

104:                                              ; preds = %108, %101
  %105 = load ptr, ptr %7, align 8, !tbaa !191
  %106 = load ptr, ptr %8, align 8, !tbaa !191
  %107 = icmp ule ptr %105, %106
  br i1 %107, label %108, label %149

108:                                              ; preds = %104
  call void @llvm.lifetime.start.p0(i64 16, ptr %16) #12
  call void @llvm.lifetime.start.p0(i64 16, ptr %17) #12
  %109 = load ptr, ptr %6, align 8, !tbaa !21
  call void asm sideeffect "", "r,~{dirflag},~{fpsr},~{flags}"(ptr %109) #12, !srcloc !390
  %110 = load ptr, ptr %6, align 8, !tbaa !21
  %111 = call <4 x float> @_mm_loadu_ps(ptr noundef %110)
  store <4 x float> %111, ptr %16, align 16, !tbaa !12
  %112 = load <4 x float>, ptr %16, align 16, !tbaa !12
  %113 = call <4 x float> @_mm_add_ps(<4 x float> noundef splat (float 5.000000e-01), <4 x float> noundef %112)
  store <4 x float> %113, ptr %16, align 16, !tbaa !12
  %114 = load <4 x float>, ptr %16, align 16, !tbaa !12
  %115 = call <2 x i64> @_mm_castps_si128(<4 x float> noundef %114)
  %116 = bitcast <2 x i64> %115 to <4 x i32>
  %117 = shufflevector <4 x i32> %116, <4 x i32> poison, <4 x i32> <i32 3, i32 2, i32 1, i32 0>
  %118 = bitcast <4 x i32> %117 to <2 x i64>
  %119 = call <4 x float> @_mm_castsi128_ps(<2 x i64> noundef %118)
  store <4 x float> %119, ptr %16, align 16, !tbaa !12
  call void @llvm.lifetime.start.p0(i64 16, ptr %18) #12
  call void @llvm.lifetime.start.p0(i64 16, ptr %19) #12
  %120 = load <4 x float>, ptr %16, align 16, !tbaa !12
  %121 = call <4 x float> @_mm_min_ps(<4 x float> noundef %120, <4 x float> noundef splat (float 6.553500e+04))
  %122 = call <4 x float> @_mm_setzero_ps()
  %123 = call <4 x float> @_mm_max_ps(<4 x float> noundef %121, <4 x float> noundef %122)
  %124 = call <2 x i64> @_mm_cvttps_epi32(<4 x float> noundef %123)
  store <2 x i64> %124, ptr %18, align 16, !tbaa !12
  %125 = load <4 x float>, ptr %16, align 16, !tbaa !12
  %126 = call <4 x float> @_mm_min_ps(<4 x float> noundef %125, <4 x float> noundef splat (float 6.553500e+04))
  %127 = call <4 x float> @_mm_setzero_ps()
  %128 = call <4 x float> @_mm_max_ps(<4 x float> noundef %126, <4 x float> noundef %127)
  %129 = call <2 x i64> @_mm_cvttps_epi32(<4 x float> noundef %128)
  store <2 x i64> %129, ptr %19, align 16, !tbaa !12
  %130 = load <2 x i64>, ptr %18, align 16, !tbaa !12
  %131 = load <2 x i64>, ptr @stbir__s32_32768, align 16, !tbaa !12
  %132 = call <2 x i64> @_mm_sub_epi32(<2 x i64> noundef %130, <2 x i64> noundef %131)
  store <2 x i64> %132, ptr %18, align 16, !tbaa !12
  %133 = load <2 x i64>, ptr %19, align 16, !tbaa !12
  %134 = load <2 x i64>, ptr @stbir__s32_32768, align 16, !tbaa !12
  %135 = call <2 x i64> @_mm_sub_epi32(<2 x i64> noundef %133, <2 x i64> noundef %134)
  store <2 x i64> %135, ptr %19, align 16, !tbaa !12
  %136 = load <2 x i64>, ptr %18, align 16, !tbaa !12
  %137 = load <2 x i64>, ptr %19, align 16, !tbaa !12
  %138 = call <2 x i64> @_mm_packs_epi32(<2 x i64> noundef %136, <2 x i64> noundef %137)
  store <2 x i64> %138, ptr %17, align 16, !tbaa !12
  %139 = load <2 x i64>, ptr %17, align 16, !tbaa !12
  %140 = load <2 x i64>, ptr @stbir__s16_32768, align 16, !tbaa !12
  %141 = call <2 x i64> @_mm_sub_epi16(<2 x i64> noundef %139, <2 x i64> noundef %140)
  store <2 x i64> %141, ptr %17, align 16, !tbaa !12
  call void @llvm.lifetime.end.p0(i64 16, ptr %19) #12
  call void @llvm.lifetime.end.p0(i64 16, ptr %18) #12
  %142 = load ptr, ptr %7, align 8, !tbaa !191
  %143 = getelementptr inbounds i16, ptr %142, i64 -4
  %144 = load <2 x i64>, ptr %17, align 16, !tbaa !12
  call void @_mm_storel_epi64(ptr noundef %143, <2 x i64> noundef %144)
  %145 = load ptr, ptr %7, align 8, !tbaa !191
  %146 = getelementptr inbounds i16, ptr %145, i64 4
  store ptr %146, ptr %7, align 8, !tbaa !191
  %147 = load ptr, ptr %6, align 8, !tbaa !21
  %148 = getelementptr inbounds float, ptr %147, i64 4
  store ptr %148, ptr %6, align 8, !tbaa !21
  call void @llvm.lifetime.end.p0(i64 16, ptr %17) #12
  call void @llvm.lifetime.end.p0(i64 16, ptr %16) #12
  br label %104, !llvm.loop !391

149:                                              ; preds = %104
  %150 = load ptr, ptr %7, align 8, !tbaa !191
  %151 = getelementptr inbounds i16, ptr %150, i64 -4
  store ptr %151, ptr %7, align 8, !tbaa !191
  store i32 0, ptr %15, align 4
  br label %152

152:                                              ; preds = %149, %100
  call void @llvm.lifetime.end.p0(i64 8, ptr %8) #12
  call void @llvm.lifetime.end.p0(i64 8, ptr %7) #12
  %153 = load i32, ptr %15, align 4
  switch i32 %153, label %155 [
    i32 0, label %154
    i32 1, label %154
  ]

154:                                              ; preds = %152, %152
  ret void

155:                                              ; preds = %152, %97
  unreachable
}